---
triple:          'arm64-apple-darwin'
binary-path:     '/Users/bang-gyeong-un/Documents/GitHub/resume/Algorithm/BaaaaaaaaaaarkingDog_0x05/Tower/main'
relocations:
  - { offsetInCU: 0x39E0, offset: 0x39E0, size: 0x8, addend: 0x0, symName: __ZNSt3__124__put_character_sequenceB7v160006IcNS_11char_traitsIcEEEERNS_13basic_ostreamIT_T0_EES7_PKS4_m, symObjAddr: 0x136C, symBinAddr: 0x10000433C, symSize: 0x1EC }
  - { offsetInCU: 0x6E54, offset: 0x6E54, size: 0x8, addend: 0x0, symName: __ZNSt3__1lsB7v160006INS_11char_traitsIcEEEERNS_13basic_ostreamIcT_EES6_PKc, symObjAddr: 0x248, symBinAddr: 0x100003218, symSize: 0x48 }
  - { offsetInCU: 0x6E9A, offset: 0x6E9A, size: 0x8, addend: 0x0, symName: __ZNSt3__1neB7v160006ERKNS_16__deque_iteratorINS_4pairIiiEEPS2_RS2_PS3_lLl512EEES8_, symObjAddr: 0x81C, symBinAddr: 0x1000037EC, symSize: 0x34 }
  - { offsetInCU: 0x6ED7, offset: 0x6ED7, size: 0x8, addend: 0x0, symName: __ZNSt3__1eqB7v160006ERKNS_16__deque_iteratorINS_4pairIiiEEPS2_RS2_PS3_lLl512EEES8_, symObjAddr: 0xABC, symBinAddr: 0x100003A8C, symSize: 0x30 }
  - { offsetInCU: 0x6F14, offset: 0x6F14, size: 0x8, addend: 0x0, symName: __ZNSt3__119__libcpp_deallocateB7v160006EPvmm, symObjAddr: 0xBC4, symBinAddr: 0x100003B94, symSize: 0x30 }
  - { offsetInCU: 0x6F5C, offset: 0x6F5C, size: 0x8, addend: 0x0, symName: __ZNSt3__127__do_deallocate_handle_sizeB7v160006IJEEEvPvmDpT_, symObjAddr: 0xBF4, symBinAddr: 0x100003BC4, symSize: 0x28 }
  - { offsetInCU: 0x6F9A, offset: 0x6F9A, size: 0x8, addend: 0x0, symName: __ZNSt3__124__libcpp_operator_deleteB7v160006IJPvEEEvDpT_, symObjAddr: 0xC1C, symBinAddr: 0x100003BEC, symSize: 0x24 }
  - { offsetInCU: 0x6FCF, offset: 0x6FCF, size: 0x8, addend: 0x0, symName: __ZNSt3__112__to_addressB7v160006IPNS_4pairIiiEEEEPT_S5_, symObjAddr: 0xEA0, symBinAddr: 0x100003E70, symSize: 0x14 }
  - { offsetInCU: 0x7004, offset: 0x7004, size: 0x8, addend: 0x0, symName: __ZNSt3__116__pad_and_outputB7v160006IcNS_11char_traitsIcEEEENS_19ostreambuf_iteratorIT_T0_EES6_PKS4_S8_S8_RNS_8ios_baseES4_, symObjAddr: 0x15A8, symBinAddr: 0x100004578, symSize: 0x240 }
  - { offsetInCU: 0x70D3, offset: 0x70D3, size: 0x8, addend: 0x0, symName: __ZNSt3__119__debug_db_insert_cB7v160006INS_12basic_stringIcNS_11char_traitsIcEENS_9allocatorIcEEEEEEvPT_, symObjAddr: 0x1A5C, symBinAddr: 0x100004A2C, symSize: 0x10 }
  - { offsetInCU: 0x7104, offset: 0x7104, size: 0x8, addend: 0x0, symName: __ZNSt3__112__to_addressB7v160006IKcEEPT_S3_, symObjAddr: 0x1B28, symBinAddr: 0x100004AF8, symSize: 0x14 }
  - { offsetInCU: 0x716C, offset: 0x716C, size: 0x8, addend: 0x0, symName: __ZNSt3__19use_facetB7v160006INS_5ctypeIcEEEERKT_RKNS_6localeE, symObjAddr: 0x1DA8, symBinAddr: 0x100004D78, symSize: 0x2C }
  - { offsetInCU: 0x763B, offset: 0x763B, size: 0x8, addend: 0x0, symName: __ZNSt3__118__constexpr_strlenB7v160006EPKc, symObjAddr: 0x1E40, symBinAddr: 0x100004E10, symSize: 0x24 }
  - { offsetInCU: 0x7667, offset: 0x7667, size: 0x8, addend: 0x0, symName: __ZNSt3__112__to_addressB7v160006INS_4pairIiiEEEEPT_S4_, symObjAddr: 0x1F1C, symBinAddr: 0x100004EEC, symSize: 0x14 }
  - { offsetInCU: 0x769C, offset: 0x769C, size: 0x8, addend: 0x0, symName: __ZNSt3__13maxB7v160006ImEERKT_S3_S3_, symObjAddr: 0x2CAC, symBinAddr: 0x100005C7C, symSize: 0x2C }
  - { offsetInCU: 0x7B38, offset: 0x7B38, size: 0x8, addend: 0x0, symName: __ZNSt3__14swapB7v160006IPPNS_4pairIiiEEEENS_9enable_ifIXaasr21is_move_constructibleIT_EE5valuesr18is_move_assignableIS6_EE5valueEvE4typeERS6_S9_, symObjAddr: 0x32BC, symBinAddr: 0x10000628C, symSize: 0x3C }
  - { offsetInCU: 0x7B89, offset: 0x7B89, size: 0x8, addend: 0x0, symName: __ZNSt3__14moveB7v160006IPPNS_4pairIiiEES4_EET0_T_S6_S5_, symObjAddr: 0x33A0, symBinAddr: 0x100006370, symSize: 0x40 }
  - { offsetInCU: 0x7BFF, offset: 0x7BFF, size: 0x8, addend: 0x0, symName: __ZNSt3__16__moveB7v160006INS_17_ClassicAlgPolicyEPPNS_4pairIiiEES5_S5_EENS2_IT0_T2_EES6_T1_S7_, symObjAddr: 0x3544, symBinAddr: 0x100006514, symSize: 0x44 }
  - { offsetInCU: 0x7C6B, offset: 0x7C6B, size: 0x8, addend: 0x0, symName: __ZNSt3__123__dispatch_copy_or_moveB7v160006INS_17_ClassicAlgPolicyENS_11__move_loopIS1_EENS_14__move_trivialEPPNS_4pairIiiEES8_S8_EENS5_IT2_T4_EES9_T3_SA_, symObjAddr: 0x3588, symBinAddr: 0x100006558, symSize: 0x44 }
  - { offsetInCU: 0x7CE9, offset: 0x7CE9, size: 0x8, addend: 0x0, symName: __ZNSt3__121__unwrap_and_dispatchB7v160006INS_10__overloadINS_11__move_loopINS_17_ClassicAlgPolicyEEENS_14__move_trivialEEEPPNS_4pairIiiEESA_SA_Li0EEENS7_IT0_T2_EESB_T1_SC_, symObjAddr: 0x35CC, symBinAddr: 0x10000659C, symSize: 0xB4 }
  - { offsetInCU: 0x7D77, offset: 0x7D77, size: 0x8, addend: 0x0, symName: __ZNSt3__114__unwrap_rangeB7v160006IPPNS_4pairIiiEES4_EENS1_IT0_S5_EET_S7_, symObjAddr: 0x3680, symBinAddr: 0x100006650, symSize: 0x60 }
  - { offsetInCU: 0x7F3B, offset: 0x7F3B, size: 0x8, addend: 0x0, symName: __ZNSt3__113__unwrap_iterB7v160006IPPNS_4pairIiiEENS_18__unwrap_iter_implIS4_Lb1EEELi0EEEDTclsrT0_8__unwrapclsr3stdE7declvalIT_EEEES8_, symObjAddr: 0x3728, symBinAddr: 0x1000066F8, symSize: 0x24 }
  - { offsetInCU: 0x7F7F, offset: 0x7F7F, size: 0x8, addend: 0x0, symName: __ZNSt3__19make_pairB7v160006IPPNS_4pairIiiEES4_EENS1_INS_18__unwrap_ref_decayIT_E4typeENS5_IT0_E4typeEEEOS6_OS9_, symObjAddr: 0x374C, symBinAddr: 0x10000671C, symSize: 0x38 }
  - { offsetInCU: 0x7FCE, offset: 0x7FCE, size: 0x8, addend: 0x0, symName: __ZNSt3__114__rewrap_rangeB7v160006IPPNS_4pairIiiEES4_EET_S5_T0_, symObjAddr: 0x3784, symBinAddr: 0x100006754, symSize: 0x2C }
  - { offsetInCU: 0x801A, offset: 0x801A, size: 0x8, addend: 0x0, symName: __ZNSt3__113__rewrap_iterB7v160006IPPNS_4pairIiiEES4_NS_18__unwrap_iter_implIS4_Lb1EEEEET_S7_T0_, symObjAddr: 0x37B0, symBinAddr: 0x100006780, symSize: 0x3C }
  - { offsetInCU: 0x806F, offset: 0x806F, size: 0x8, addend: 0x0, symName: __ZNSt3__119__copy_trivial_implB7v160006IPNS_4pairIiiEES3_EENS1_IPT_PT0_EES5_S5_S7_, symObjAddr: 0x37EC, symBinAddr: 0x1000067BC, symSize: 0x84 }
  - { offsetInCU: 0x80D7, offset: 0x80D7, size: 0x8, addend: 0x0, symName: __ZNSt3__19make_pairB7v160006IRPPNS_4pairIiiEES4_EENS1_INS_18__unwrap_ref_decayIT_E4typeENS6_IT0_E4typeEEEOS7_OSA_, symObjAddr: 0x3870, symBinAddr: 0x100006840, symSize: 0x38 }
  - { offsetInCU: 0x8179, offset: 0x8179, size: 0x8, addend: 0x0, symName: __ZNSt3__18distanceB7v160006INS_13move_iteratorIPPNS_4pairIiiEEEEEENS_15iterator_traitsIT_E15difference_typeES8_S8_, symObjAddr: 0x39FC, symBinAddr: 0x1000069CC, symSize: 0x3C }
  - { offsetInCU: 0x81BC, offset: 0x81BC, size: 0x8, addend: 0x0, symName: __ZNSt3__110__distanceB7v160006INS_13move_iteratorIPPNS_4pairIiiEEEEEENS_15iterator_traitsIT_E15difference_typeES8_S8_NS_26random_access_iterator_tagE, symObjAddr: 0x3B34, symBinAddr: 0x100006B04, symSize: 0x30 }
  - { offsetInCU: 0x8209, offset: 0x8209, size: 0x8, addend: 0x0, symName: __ZNSt3__1miB7v160006IPPNS_4pairIiiEES4_EEDTmicldtfp_4baseEcldtfp0_4baseEERKNS_13move_iteratorIT_EERKNS6_IT0_EE, symObjAddr: 0x3B64, symBinAddr: 0x100006B34, symSize: 0x48 }
  - { offsetInCU: 0x8258, offset: 0x8258, size: 0x8, addend: 0x0, symName: __ZNSt3__117__libcpp_allocateB7v160006Emm, symObjAddr: 0x3D88, symBinAddr: 0x100006D58, symSize: 0x28 }
  - { offsetInCU: 0x8295, offset: 0x8295, size: 0x8, addend: 0x0, symName: __ZNSt3__121__libcpp_operator_newB7v160006IJmEEEPvDpT_, symObjAddr: 0x3DC4, symBinAddr: 0x100006D94, symSize: 0x24 }
  - { offsetInCU: 0x82CE, offset: 0x82CE, size: 0x8, addend: 0x0, symName: __ZNSt3__113move_backwardB7v160006IPPNS_4pairIiiEES4_EET0_T_S6_S5_, symObjAddr: 0x3DE8, symBinAddr: 0x100006DB8, symSize: 0x40 }
  - { offsetInCU: 0x8328, offset: 0x8328, size: 0x8, addend: 0x0, symName: __ZNSt3__115__move_backwardB7v160006INS_17_ClassicAlgPolicyEPPNS_4pairIiiEES5_S5_EENS2_IT0_T2_EES6_T1_S7_, symObjAddr: 0x3E28, symBinAddr: 0x100006DF8, symSize: 0x44 }
  - { offsetInCU: 0x8394, offset: 0x8394, size: 0x8, addend: 0x0, symName: __ZNSt3__123__dispatch_copy_or_moveB7v160006INS_17_ClassicAlgPolicyENS_20__move_backward_loopIS1_EENS_23__move_backward_trivialEPPNS_4pairIiiEES8_S8_EENS5_IT2_T4_EES9_T3_SA_, symObjAddr: 0x3E6C, symBinAddr: 0x100006E3C, symSize: 0x44 }
  - { offsetInCU: 0x8412, offset: 0x8412, size: 0x8, addend: 0x0, symName: __ZNSt3__121__unwrap_and_dispatchB7v160006INS_10__overloadINS_20__move_backward_loopINS_17_ClassicAlgPolicyEEENS_23__move_backward_trivialEEEPPNS_4pairIiiEESA_SA_Li0EEENS7_IT0_T2_EESB_T1_SC_, symObjAddr: 0x3EB0, symBinAddr: 0x100006E80, symSize: 0xB4 }
  - { offsetInCU: 0x84E6, offset: 0x84E6, size: 0x8, addend: 0x0, symName: __ZNSt3__128__copy_backward_trivial_implB7v160006IPNS_4pairIiiEES3_EENS1_IPT_PT0_EES5_S5_S7_, symObjAddr: 0x3FAC, symBinAddr: 0x100006F7C, symSize: 0x94 }
  - { offsetInCU: 0x854E, offset: 0x854E, size: 0x8, addend: 0x0, symName: __ZNSt3__19make_pairB7v160006IRPPNS_4pairIiiEES5_EENS1_INS_18__unwrap_ref_decayIT_E4typeENS6_IT0_E4typeEEEOS7_OSA_, symObjAddr: 0x4040, symBinAddr: 0x100007010, symSize: 0x38 }
  - { offsetInCU: 0x859D, offset: 0x859D, size: 0x8, addend: 0x0, symName: __ZNSt3__13maxB7v160006ImNS_6__lessImmEEEERKT_S5_S5_T0_, symObjAddr: 0x40E8, symBinAddr: 0x1000070B8, symSize: 0x54 }
  - { offsetInCU: 0x8632, offset: 0x8632, size: 0x8, addend: 0x0, symName: __ZNSt3__119__allocate_at_leastB7v160006INS_9allocatorIPNS_4pairIiiEEEEEENS_19__allocation_resultINS_16allocator_traitsIT_E7pointerEEERS8_m, symObjAddr: 0x4280, symBinAddr: 0x100007250, symSize: 0x40 }
  - { offsetInCU: 0x8821, offset: 0x8821, size: 0x8, addend: 0x0, symName: __ZSt28__throw_bad_array_new_lengthB7v160006v, symObjAddr: 0x3D54, symBinAddr: 0x100006D24, symSize: 0x34 }
  - { offsetInCU: 0xAF2C, offset: 0xAF2C, size: 0x8, addend: 0x0, symName: _main, symObjAddr: 0x0, symBinAddr: 0x100002FD0, symSize: 0x1D0 }
  - { offsetInCU: 0xAFC7, offset: 0xAFC7, size: 0x8, addend: 0x0, symName: __ZNSt3__15stackINS_4pairIiiEENS_5dequeIS2_NS_9allocatorIS2_EEEEEC1B7v160006Ev, symObjAddr: 0x1D0, symBinAddr: 0x1000031A0, symSize: 0x2C }
  - { offsetInCU: 0xAFF1, offset: 0xAFF1, size: 0x8, addend: 0x0, symName: __ZNKSt3__15stackINS_4pairIiiEENS_5dequeIS2_NS_9allocatorIS2_EEEEE5emptyB7v160006Ev, symObjAddr: 0x1FC, symBinAddr: 0x1000031CC, symSize: 0x28 }
  - { offsetInCU: 0xB017, offset: 0xB017, size: 0x8, addend: 0x0, symName: __ZNSt3__15stackINS_4pairIiiEENS_5dequeIS2_NS_9allocatorIS2_EEEEE3topB7v160006Ev, symObjAddr: 0x224, symBinAddr: 0x1000031F4, symSize: 0x24 }
  - { offsetInCU: 0xB03D, offset: 0xB03D, size: 0x8, addend: 0x0, symName: __ZNSt3__15stackINS_4pairIiiEENS_5dequeIS2_NS_9allocatorIS2_EEEEE3popB7v160006Ev, symObjAddr: 0x290, symBinAddr: 0x100003260, symSize: 0x24 }
  - { offsetInCU: 0xB063, offset: 0xB063, size: 0x8, addend: 0x0, symName: __ZNSt3__15stackINS_4pairIiiEENS_5dequeIS2_NS_9allocatorIS2_EEEEE4pushB7v160006EOS2_, symObjAddr: 0x2B4, symBinAddr: 0x100003284, symSize: 0x2C }
  - { offsetInCU: 0xB0A1, offset: 0xB0A1, size: 0x8, addend: 0x0, symName: __ZNSt3__14pairIiiEC1B7v160006IRiiLPv0EEEOT_OT0_, symObjAddr: 0x2E0, symBinAddr: 0x1000032B0, symSize: 0x3C }
  - { offsetInCU: 0xB0FF, offset: 0xB0FF, size: 0x8, addend: 0x0, symName: __ZNSt3__15stackINS_4pairIiiEENS_5dequeIS2_NS_9allocatorIS2_EEEEED1Ev, symObjAddr: 0x31C, symBinAddr: 0x1000032EC, symSize: 0x2C }
  - { offsetInCU: 0xB12B, offset: 0xB12B, size: 0x8, addend: 0x0, symName: __ZNSt3__14pairIiiEC2B7v160006IRiiLPv0EEEOT_OT0_, symObjAddr: 0x348, symBinAddr: 0x100003318, symSize: 0x34 }
  - { offsetInCU: 0xB189, offset: 0xB189, size: 0x8, addend: 0x0, symName: __ZNSt3__15stackINS_4pairIiiEENS_5dequeIS2_NS_9allocatorIS2_EEEEED2Ev, symObjAddr: 0x37C, symBinAddr: 0x10000334C, symSize: 0x2C }
  - { offsetInCU: 0xB1B5, offset: 0xB1B5, size: 0x8, addend: 0x0, symName: __ZNSt3__15dequeINS_4pairIiiEENS_9allocatorIS2_EEED1B7v160006Ev, symObjAddr: 0x3A8, symBinAddr: 0x100003378, symSize: 0x2C }
  - { offsetInCU: 0xB1DF, offset: 0xB1DF, size: 0x8, addend: 0x0, symName: __ZNSt3__15dequeINS_4pairIiiEENS_9allocatorIS2_EEED2B7v160006Ev, symObjAddr: 0x3D4, symBinAddr: 0x1000033A4, symSize: 0x9C }
  - { offsetInCU: 0xB236, offset: 0xB236, size: 0x8, addend: 0x0, symName: __ZNSt3__15dequeINS_4pairIiiEENS_9allocatorIS2_EEE5clearEv, symObjAddr: 0x470, symBinAddr: 0x100003440, symSize: 0x180 }
  - { offsetInCU: 0xB291, offset: 0xB291, size: 0x8, addend: 0x0, symName: __ZNSt3__114__split_bufferIPNS_4pairIiiEENS_9allocatorIS3_EEE5beginB7v160006Ev, symObjAddr: 0x5F0, symBinAddr: 0x1000035C0, symSize: 0x18 }
  - { offsetInCU: 0xB2B7, offset: 0xB2B7, size: 0x8, addend: 0x0, symName: __ZNSt3__114__split_bufferIPNS_4pairIiiEENS_9allocatorIS3_EEE3endB7v160006Ev, symObjAddr: 0x608, symBinAddr: 0x1000035D8, symSize: 0x18 }
  - { offsetInCU: 0xB2DD, offset: 0xB2DD, size: 0x8, addend: 0x0, symName: __ZNSt3__116allocator_traitsINS_9allocatorINS_4pairIiiEEEEE10deallocateB7v160006ERS4_PS3_m, symObjAddr: 0x620, symBinAddr: 0x1000035F0, symSize: 0x34 }
  - { offsetInCU: 0xB31F, offset: 0xB31F, size: 0x8, addend: 0x0, symName: __ZNSt3__15dequeINS_4pairIiiEENS_9allocatorIS2_EEE7__allocB7v160006Ev, symObjAddr: 0x654, symBinAddr: 0x100003624, symSize: 0x28 }
  - { offsetInCU: 0xB345, offset: 0xB345, size: 0x8, addend: 0x0, symName: __ZNSt3__114__split_bufferIPNS_4pairIiiEENS_9allocatorIS3_EEED1Ev, symObjAddr: 0x67C, symBinAddr: 0x10000364C, symSize: 0x2C }
  - { offsetInCU: 0xB371, offset: 0xB371, size: 0x8, addend: 0x0, symName: __ZNSt3__15dequeINS_4pairIiiEENS_9allocatorIS2_EEE5beginB7v160006Ev, symObjAddr: 0x6A8, symBinAddr: 0x100003678, symSize: 0xB8 }
  - { offsetInCU: 0xB3A6, offset: 0xB3A6, size: 0x8, addend: 0x0, symName: __ZNSt3__15dequeINS_4pairIiiEENS_9allocatorIS2_EEE3endB7v160006Ev, symObjAddr: 0x760, symBinAddr: 0x100003730, symSize: 0xBC }
  - { offsetInCU: 0xB3EA, offset: 0xB3EA, size: 0x8, addend: 0x0, symName: __ZNSt3__116allocator_traitsINS_9allocatorINS_4pairIiiEEEEE7destroyB7v160006IS3_vEEvRS4_PT_, symObjAddr: 0x85C, symBinAddr: 0x10000382C, symSize: 0x2C }
  - { offsetInCU: 0xB427, offset: 0xB427, size: 0x8, addend: 0x0, symName: __ZNKSt3__116__deque_iteratorINS_4pairIiiEEPS2_RS2_PS3_lLl512EEdeB7v160006Ev, symObjAddr: 0x888, symBinAddr: 0x100003858, symSize: 0x18 }
  - { offsetInCU: 0xB44D, offset: 0xB44D, size: 0x8, addend: 0x0, symName: __ZNSt3__116__deque_iteratorINS_4pairIiiEEPS2_RS2_PS3_lLl512EEppB7v160006Ev, symObjAddr: 0x8A0, symBinAddr: 0x100003870, symSize: 0x70 }
  - { offsetInCU: 0xB473, offset: 0xB473, size: 0x8, addend: 0x0, symName: __ZNSt3__15dequeINS_4pairIiiEENS_9allocatorIS2_EEE6__sizeB7v160006Ev, symObjAddr: 0x910, symBinAddr: 0x1000038E0, symSize: 0x28 }
  - { offsetInCU: 0xB499, offset: 0xB499, size: 0x8, addend: 0x0, symName: __ZNKSt3__114__split_bufferIPNS_4pairIiiEENS_9allocatorIS3_EEE4sizeB7v160006Ev, symObjAddr: 0x938, symBinAddr: 0x100003908, symSize: 0x28 }
  - { offsetInCU: 0xB4BF, offset: 0xB4BF, size: 0x8, addend: 0x0, symName: __ZNSt3__114__split_bufferIPNS_4pairIiiEENS_9allocatorIS3_EEE5frontB7v160006Ev, symObjAddr: 0x960, symBinAddr: 0x100003930, symSize: 0x18 }
  - { offsetInCU: 0xB4E5, offset: 0xB4E5, size: 0x8, addend: 0x0, symName: __ZNSt3__114__split_bufferIPNS_4pairIiiEENS_9allocatorIS3_EEE9pop_frontB7v160006Ev, symObjAddr: 0x978, symBinAddr: 0x100003948, symSize: 0x2C }
  - { offsetInCU: 0xB50B, offset: 0xB50B, size: 0x8, addend: 0x0, symName: __ZNKSt3__114__split_bufferIPNS_4pairIiiEENS_9allocatorIS3_EEE5emptyB7v160006Ev, symObjAddr: 0x9A4, symBinAddr: 0x100003974, symSize: 0x28 }
  - { offsetInCU: 0xB531, offset: 0xB531, size: 0x8, addend: 0x0, symName: __ZNSt3__116__deque_iteratorINS_4pairIiiEEPS2_RS2_PS3_lLl512EEC1B7v160006ES5_S3_, symObjAddr: 0x9CC, symBinAddr: 0x10000399C, symSize: 0x3C }
  - { offsetInCU: 0xB579, offset: 0xB579, size: 0x8, addend: 0x0, symName: __ZNSt3__116__deque_iteratorINS_4pairIiiEEPS2_RS2_PS3_lLl512EEC2B7v160006ES5_S3_, symObjAddr: 0xA08, symBinAddr: 0x1000039D8, symSize: 0x2C }
  - { offsetInCU: 0xB5C1, offset: 0xB5C1, size: 0x8, addend: 0x0, symName: __ZNKSt3__15dequeINS_4pairIiiEENS_9allocatorIS2_EEE4sizeB7v160006Ev, symObjAddr: 0xA34, symBinAddr: 0x100003A04, symSize: 0x28 }
  - { offsetInCU: 0xB5E7, offset: 0xB5E7, size: 0x8, addend: 0x0, symName: __ZNKSt3__15dequeINS_4pairIiiEENS_9allocatorIS2_EEE6__sizeB7v160006Ev, symObjAddr: 0xA5C, symBinAddr: 0x100003A2C, symSize: 0x28 }
  - { offsetInCU: 0xB60D, offset: 0xB60D, size: 0x8, addend: 0x0, symName: __ZNKSt3__117__compressed_pairImNS_9allocatorINS_4pairIiiEEEEE5firstB7v160006Ev, symObjAddr: 0xA84, symBinAddr: 0x100003A54, symSize: 0x24 }
  - { offsetInCU: 0xB633, offset: 0xB633, size: 0x8, addend: 0x0, symName: __ZNKSt3__122__compressed_pair_elemImLi0ELb0EE5__getB7v160006Ev, symObjAddr: 0xAA8, symBinAddr: 0x100003A78, symSize: 0x14 }
  - { offsetInCU: 0xB659, offset: 0xB659, size: 0x8, addend: 0x0, symName: __ZNSt3__19allocatorINS_4pairIiiEEE7destroyB7v160006EPS2_, symObjAddr: 0xAEC, symBinAddr: 0x100003ABC, symSize: 0x14 }
  - { offsetInCU: 0xB68D, offset: 0xB68D, size: 0x8, addend: 0x0, symName: __ZNSt3__117__compressed_pairImNS_9allocatorINS_4pairIiiEEEEE5firstB7v160006Ev, symObjAddr: 0xB00, symBinAddr: 0x100003AD0, symSize: 0x24 }
  - { offsetInCU: 0xB6B3, offset: 0xB6B3, size: 0x8, addend: 0x0, symName: __ZNSt3__122__compressed_pair_elemImLi0ELb0EE5__getB7v160006Ev, symObjAddr: 0xB24, symBinAddr: 0x100003AF4, symSize: 0x14 }
  - { offsetInCU: 0xB6D9, offset: 0xB6D9, size: 0x8, addend: 0x0, symName: __ZNSt3__114__split_bufferIPNS_4pairIiiEENS_9allocatorIS3_EEE19__destruct_at_beginB7v160006EPS3_, symObjAddr: 0xB38, symBinAddr: 0x100003B08, symSize: 0x2C }
  - { offsetInCU: 0xB70D, offset: 0xB70D, size: 0x8, addend: 0x0, symName: __ZNSt3__114__split_bufferIPNS_4pairIiiEENS_9allocatorIS3_EEE19__destruct_at_beginEPS3_NS_17integral_constantIbLb1EEE, symObjAddr: 0xB64, symBinAddr: 0x100003B34, symSize: 0x20 }
  - { offsetInCU: 0xB74D, offset: 0xB74D, size: 0x8, addend: 0x0, symName: __ZNSt3__19allocatorINS_4pairIiiEEE10deallocateB7v160006EPS2_m, symObjAddr: 0xB84, symBinAddr: 0x100003B54, symSize: 0x40 }
  - { offsetInCU: 0xB78F, offset: 0xB78F, size: 0x8, addend: 0x0, symName: __ZNSt3__117__compressed_pairImNS_9allocatorINS_4pairIiiEEEEE6secondB7v160006Ev, symObjAddr: 0xC40, symBinAddr: 0x100003C10, symSize: 0x24 }
  - { offsetInCU: 0xB7B5, offset: 0xB7B5, size: 0x8, addend: 0x0, symName: __ZNSt3__122__compressed_pair_elemINS_9allocatorINS_4pairIiiEEEELi1ELb1EE5__getB7v160006Ev, symObjAddr: 0xC64, symBinAddr: 0x100003C34, symSize: 0x14 }
  - { offsetInCU: 0xB7DB, offset: 0xB7DB, size: 0x8, addend: 0x0, symName: __ZNSt3__114__split_bufferIPNS_4pairIiiEENS_9allocatorIS3_EEED2Ev, symObjAddr: 0xC78, symBinAddr: 0x100003C48, symSize: 0x8C }
  - { offsetInCU: 0xB807, offset: 0xB807, size: 0x8, addend: 0x0, symName: __ZNSt3__114__split_bufferIPNS_4pairIiiEENS_9allocatorIS3_EEE5clearB7v160006Ev, symObjAddr: 0xD04, symBinAddr: 0x100003CD4, symSize: 0x28 }
  - { offsetInCU: 0xB82D, offset: 0xB82D, size: 0x8, addend: 0x0, symName: __ZNSt3__116allocator_traitsINS_9allocatorIPNS_4pairIiiEEEEE10deallocateB7v160006ERS5_PS4_m, symObjAddr: 0xD2C, symBinAddr: 0x100003CFC, symSize: 0x34 }
  - { offsetInCU: 0xB86F, offset: 0xB86F, size: 0x8, addend: 0x0, symName: __ZNSt3__114__split_bufferIPNS_4pairIiiEENS_9allocatorIS3_EEE7__allocB7v160006Ev, symObjAddr: 0xD60, symBinAddr: 0x100003D30, symSize: 0x28 }
  - { offsetInCU: 0xB895, offset: 0xB895, size: 0x8, addend: 0x0, symName: __ZNKSt3__114__split_bufferIPNS_4pairIiiEENS_9allocatorIS3_EEE8capacityB7v160006Ev, symObjAddr: 0xD88, symBinAddr: 0x100003D58, symSize: 0x40 }
  - { offsetInCU: 0xB8BB, offset: 0xB8BB, size: 0x8, addend: 0x0, symName: __ZNSt3__114__split_bufferIPNS_4pairIiiEENS_9allocatorIS3_EEE17__destruct_at_endB7v160006EPS3_, symObjAddr: 0xDC8, symBinAddr: 0x100003D98, symSize: 0x2C }
  - { offsetInCU: 0xB8EF, offset: 0xB8EF, size: 0x8, addend: 0x0, symName: __ZNSt3__114__split_bufferIPNS_4pairIiiEENS_9allocatorIS3_EEE17__destruct_at_endB7v160006EPS3_NS_17integral_constantIbLb0EEE, symObjAddr: 0xDF4, symBinAddr: 0x100003DC4, symSize: 0x80 }
  - { offsetInCU: 0xB92F, offset: 0xB92F, size: 0x8, addend: 0x0, symName: __ZNSt3__116allocator_traitsINS_9allocatorIPNS_4pairIiiEEEEE7destroyB7v160006IS4_vEEvRS5_PT_, symObjAddr: 0xE74, symBinAddr: 0x100003E44, symSize: 0x2C }
  - { offsetInCU: 0xB96C, offset: 0xB96C, size: 0x8, addend: 0x0, symName: __ZNSt3__19allocatorIPNS_4pairIiiEEE7destroyB7v160006EPS3_, symObjAddr: 0xEB4, symBinAddr: 0x100003E84, symSize: 0x14 }
  - { offsetInCU: 0xB9A0, offset: 0xB9A0, size: 0x8, addend: 0x0, symName: __ZNSt3__19allocatorIPNS_4pairIiiEEE10deallocateB7v160006EPS3_m, symObjAddr: 0xEC8, symBinAddr: 0x100003E98, symSize: 0x40 }
  - { offsetInCU: 0xB9E2, offset: 0xB9E2, size: 0x8, addend: 0x0, symName: __ZNSt3__117__compressed_pairIPPNS_4pairIiiEENS_9allocatorIS3_EEE6secondB7v160006Ev, symObjAddr: 0xF08, symBinAddr: 0x100003ED8, symSize: 0x24 }
  - { offsetInCU: 0xBA08, offset: 0xBA08, size: 0x8, addend: 0x0, symName: __ZNSt3__122__compressed_pair_elemINS_9allocatorIPNS_4pairIiiEEEELi1ELb1EE5__getB7v160006Ev, symObjAddr: 0xF2C, symBinAddr: 0x100003EFC, symSize: 0x14 }
  - { offsetInCU: 0xBA2E, offset: 0xBA2E, size: 0x8, addend: 0x0, symName: __ZNKSt3__114__split_bufferIPNS_4pairIiiEENS_9allocatorIS3_EEE9__end_capB7v160006Ev, symObjAddr: 0xF40, symBinAddr: 0x100003F10, symSize: 0x28 }
  - { offsetInCU: 0xBA54, offset: 0xBA54, size: 0x8, addend: 0x0, symName: __ZNKSt3__117__compressed_pairIPPNS_4pairIiiEENS_9allocatorIS3_EEE5firstB7v160006Ev, symObjAddr: 0xF68, symBinAddr: 0x100003F38, symSize: 0x24 }
  - { offsetInCU: 0xBA7A, offset: 0xBA7A, size: 0x8, addend: 0x0, symName: __ZNKSt3__122__compressed_pair_elemIPPNS_4pairIiiEELi0ELb0EE5__getB7v160006Ev, symObjAddr: 0xF8C, symBinAddr: 0x100003F5C, symSize: 0x14 }
  - { offsetInCU: 0xBAA0, offset: 0xBAA0, size: 0x8, addend: 0x0, symName: __ZNSt3__15stackINS_4pairIiiEENS_5dequeIS2_NS_9allocatorIS2_EEEEEC2B7v160006Ev, symObjAddr: 0xFA0, symBinAddr: 0x100003F70, symSize: 0x2C }
  - { offsetInCU: 0xBACA, offset: 0xBACA, size: 0x8, addend: 0x0, symName: __ZNSt3__15dequeINS_4pairIiiEENS_9allocatorIS2_EEEC1B7v160006Ev, symObjAddr: 0xFCC, symBinAddr: 0x100003F9C, symSize: 0x2C }
  - { offsetInCU: 0xBAF4, offset: 0xBAF4, size: 0x8, addend: 0x0, symName: __ZNSt3__15dequeINS_4pairIiiEENS_9allocatorIS2_EEEC2B7v160006Ev, symObjAddr: 0xFF8, symBinAddr: 0x100003FC8, symSize: 0x50 }
  - { offsetInCU: 0xBB1E, offset: 0xBB1E, size: 0x8, addend: 0x0, symName: __ZNSt3__114__split_bufferIPNS_4pairIiiEENS_9allocatorIS3_EEEC1Ev, symObjAddr: 0x1048, symBinAddr: 0x100004018, symSize: 0x2C }
  - { offsetInCU: 0xBB4F, offset: 0xBB4F, size: 0x8, addend: 0x0, symName: __ZNSt3__117__compressed_pairImNS_9allocatorINS_4pairIiiEEEEEC1B7v160006IiNS_18__default_init_tagEEEOT_OT0_, symObjAddr: 0x1074, symBinAddr: 0x100004044, symSize: 0x3C }
  - { offsetInCU: 0xBBA7, offset: 0xBBA7, size: 0x8, addend: 0x0, symName: __ZNSt3__114__split_bufferIPNS_4pairIiiEENS_9allocatorIS3_EEEC2Ev, symObjAddr: 0x10B0, symBinAddr: 0x100004080, symSize: 0x50 }
  - { offsetInCU: 0xBBD8, offset: 0xBBD8, size: 0x8, addend: 0x0, symName: __ZNSt3__117__compressed_pairIPPNS_4pairIiiEENS_9allocatorIS3_EEEC1B7v160006IDnNS_18__default_init_tagEEEOT_OT0_, symObjAddr: 0x1100, symBinAddr: 0x1000040D0, symSize: 0x3C }
  - { offsetInCU: 0xBC30, offset: 0xBC30, size: 0x8, addend: 0x0, symName: __ZNSt3__117__compressed_pairIPPNS_4pairIiiEENS_9allocatorIS3_EEEC2B7v160006IDnNS_18__default_init_tagEEEOT_OT0_, symObjAddr: 0x113C, symBinAddr: 0x10000410C, symSize: 0x40 }
  - { offsetInCU: 0xBC88, offset: 0xBC88, size: 0x8, addend: 0x0, symName: __ZNSt3__122__compressed_pair_elemIPPNS_4pairIiiEELi0ELb0EEC2B7v160006IDnvEEOT_, symObjAddr: 0x117C, symBinAddr: 0x10000414C, symSize: 0x1C }
  - { offsetInCU: 0xBCCA, offset: 0xBCCA, size: 0x8, addend: 0x0, symName: __ZNSt3__122__compressed_pair_elemINS_9allocatorIPNS_4pairIiiEEEELi1ELb1EEC2B7v160006ENS_18__default_init_tagE, symObjAddr: 0x1198, symBinAddr: 0x100004168, symSize: 0x2C }
  - { offsetInCU: 0xBCFE, offset: 0xBCFE, size: 0x8, addend: 0x0, symName: __ZNSt3__19allocatorIPNS_4pairIiiEEEC2B7v160006Ev, symObjAddr: 0x11C4, symBinAddr: 0x100004194, symSize: 0x2C }
  - { offsetInCU: 0xBD28, offset: 0xBD28, size: 0x8, addend: 0x0, symName: __ZNSt3__116__non_trivial_ifILb1ENS_9allocatorIPNS_4pairIiiEEEEEC2B7v160006Ev, symObjAddr: 0x11F0, symBinAddr: 0x1000041C0, symSize: 0x14 }
  - { offsetInCU: 0xBD52, offset: 0xBD52, size: 0x8, addend: 0x0, symName: __ZNSt3__117__compressed_pairImNS_9allocatorINS_4pairIiiEEEEEC2B7v160006IiNS_18__default_init_tagEEEOT_OT0_, symObjAddr: 0x1204, symBinAddr: 0x1000041D4, symSize: 0x40 }
  - { offsetInCU: 0xBDAA, offset: 0xBDAA, size: 0x8, addend: 0x0, symName: __ZNSt3__122__compressed_pair_elemImLi0ELb0EEC2B7v160006IivEEOT_, symObjAddr: 0x1244, symBinAddr: 0x100004214, symSize: 0x24 }
  - { offsetInCU: 0xBDEC, offset: 0xBDEC, size: 0x8, addend: 0x0, symName: __ZNSt3__122__compressed_pair_elemINS_9allocatorINS_4pairIiiEEEELi1ELb1EEC2B7v160006ENS_18__default_init_tagE, symObjAddr: 0x1268, symBinAddr: 0x100004238, symSize: 0x2C }
  - { offsetInCU: 0xBE20, offset: 0xBE20, size: 0x8, addend: 0x0, symName: __ZNSt3__19allocatorINS_4pairIiiEEEC2B7v160006Ev, symObjAddr: 0x1294, symBinAddr: 0x100004264, symSize: 0x2C }
  - { offsetInCU: 0xBE4A, offset: 0xBE4A, size: 0x8, addend: 0x0, symName: __ZNSt3__116__non_trivial_ifILb1ENS_9allocatorINS_4pairIiiEEEEEC2B7v160006Ev, symObjAddr: 0x12C0, symBinAddr: 0x100004290, symSize: 0x14 }
  - { offsetInCU: 0xBE74, offset: 0xBE74, size: 0x8, addend: 0x0, symName: __ZNKSt3__15dequeINS_4pairIiiEENS_9allocatorIS2_EEE5emptyB7v160006Ev, symObjAddr: 0x12D4, symBinAddr: 0x1000042A4, symSize: 0x30 }
  - { offsetInCU: 0xBE9A, offset: 0xBE9A, size: 0x8, addend: 0x0, symName: __ZNSt3__15dequeINS_4pairIiiEENS_9allocatorIS2_EEE4backEv, symObjAddr: 0x1304, symBinAddr: 0x1000042D4, symSize: 0x68 }
  - { offsetInCU: 0xBED1, offset: 0xBED1, size: 0x8, addend: 0x0, symName: __ZNSt3__111char_traitsIcE6lengthEPKc, symObjAddr: 0x1558, symBinAddr: 0x100004528, symSize: 0x34 }
  - { offsetInCU: 0xBF12, offset: 0xBF12, size: 0x8, addend: 0x0, symName: __ZNKSt3__113basic_ostreamIcNS_11char_traitsIcEEE6sentrycvbB7v160006Ev, symObjAddr: 0x158C, symBinAddr: 0x10000455C, symSize: 0x1C }
  - { offsetInCU: 0xBF38, offset: 0xBF38, size: 0x8, addend: 0x0, symName: __ZNSt3__119ostreambuf_iteratorIcNS_11char_traitsIcEEEC1B7v160006ERNS_13basic_ostreamIcS2_EE, symObjAddr: 0x17E8, symBinAddr: 0x1000047B8, symSize: 0x34 }
  - { offsetInCU: 0xBF70, offset: 0xBF70, size: 0x8, addend: 0x0, symName: __ZNKSt3__18ios_base5flagsB7v160006Ev, symObjAddr: 0x181C, symBinAddr: 0x1000047EC, symSize: 0x18 }
  - { offsetInCU: 0xBF98, offset: 0xBF98, size: 0x8, addend: 0x0, symName: __ZNKSt3__19basic_iosIcNS_11char_traitsIcEEE4fillB7v160006Ev, symObjAddr: 0x1834, symBinAddr: 0x100004804, symSize: 0x64 }
  - { offsetInCU: 0xBFC0, offset: 0xBFC0, size: 0x8, addend: 0x0, symName: __ZNKSt3__119ostreambuf_iteratorIcNS_11char_traitsIcEEE6failedB7v160006Ev, symObjAddr: 0x1898, symBinAddr: 0x100004868, symSize: 0x24 }
  - { offsetInCU: 0xBFE6, offset: 0xBFE6, size: 0x8, addend: 0x0, symName: __ZNSt3__19basic_iosIcNS_11char_traitsIcEEE8setstateB7v160006Ej, symObjAddr: 0x18BC, symBinAddr: 0x10000488C, symSize: 0x2C }
  - { offsetInCU: 0xC01B, offset: 0xC01B, size: 0x8, addend: 0x0, symName: __ZNKSt3__18ios_base5widthB7v160006Ev, symObjAddr: 0x18E8, symBinAddr: 0x1000048B8, symSize: 0x18 }
  - { offsetInCU: 0xC043, offset: 0xC043, size: 0x8, addend: 0x0, symName: __ZNSt3__115basic_streambufIcNS_11char_traitsIcEEE5sputnB7v160006EPKcl, symObjAddr: 0x1900, symBinAddr: 0x1000048D0, symSize: 0x3C }
  - { offsetInCU: 0xC085, offset: 0xC085, size: 0x8, addend: 0x0, symName: __ZNSt3__112basic_stringIcNS_11char_traitsIcEENS_9allocatorIcEEEC1B7v160006Emc, symObjAddr: 0x193C, symBinAddr: 0x10000490C, symSize: 0x3C }
  - { offsetInCU: 0xC0CD, offset: 0xC0CD, size: 0x8, addend: 0x0, symName: __ZNKSt3__112basic_stringIcNS_11char_traitsIcEENS_9allocatorIcEEE4dataB7v160006Ev, symObjAddr: 0x1978, symBinAddr: 0x100004948, symSize: 0x28 }
  - { offsetInCU: 0xC0F3, offset: 0xC0F3, size: 0x8, addend: 0x0, symName: __ZNSt3__18ios_base5widthB7v160006El, symObjAddr: 0x19A0, symBinAddr: 0x100004970, symSize: 0x2C }
  - { offsetInCU: 0xC139, offset: 0xC139, size: 0x8, addend: 0x0, symName: __ZNSt3__112basic_stringIcNS_11char_traitsIcEENS_9allocatorIcEEEC2B7v160006Emc, symObjAddr: 0x19CC, symBinAddr: 0x10000499C, symSize: 0x54 }
  - { offsetInCU: 0xC181, offset: 0xC181, size: 0x8, addend: 0x0, symName: __ZNSt3__117__compressed_pairINS_12basic_stringIcNS_11char_traitsIcEENS_9allocatorIcEEE5__repES5_EC1B7v160006INS_18__default_init_tagESA_EEOT_OT0_, symObjAddr: 0x1A20, symBinAddr: 0x1000049F0, symSize: 0x3C }
  - { offsetInCU: 0xC1D9, offset: 0xC1D9, size: 0x8, addend: 0x0, symName: __ZNSt3__117__compressed_pairINS_12basic_stringIcNS_11char_traitsIcEENS_9allocatorIcEEE5__repES5_EC2B7v160006INS_18__default_init_tagESA_EEOT_OT0_, symObjAddr: 0x1A6C, symBinAddr: 0x100004A3C, symSize: 0x3C }
  - { offsetInCU: 0xC231, offset: 0xC231, size: 0x8, addend: 0x0, symName: __ZNSt3__122__compressed_pair_elemINS_12basic_stringIcNS_11char_traitsIcEENS_9allocatorIcEEE5__repELi0ELb0EEC2B7v160006ENS_18__default_init_tagE, symObjAddr: 0x1AA8, symBinAddr: 0x100004A78, symSize: 0x14 }
  - { offsetInCU: 0xC265, offset: 0xC265, size: 0x8, addend: 0x0, symName: __ZNSt3__122__compressed_pair_elemINS_9allocatorIcEELi1ELb1EEC2B7v160006ENS_18__default_init_tagE, symObjAddr: 0x1ABC, symBinAddr: 0x100004A8C, symSize: 0x2C }
  - { offsetInCU: 0xC299, offset: 0xC299, size: 0x8, addend: 0x0, symName: __ZNSt3__19allocatorIcEC2B7v160006Ev, symObjAddr: 0x1AE8, symBinAddr: 0x100004AB8, symSize: 0x2C }
  - { offsetInCU: 0xC2C3, offset: 0xC2C3, size: 0x8, addend: 0x0, symName: __ZNSt3__116__non_trivial_ifILb1ENS_9allocatorIcEEEC2B7v160006Ev, symObjAddr: 0x1B14, symBinAddr: 0x100004AE4, symSize: 0x14 }
  - { offsetInCU: 0xC2ED, offset: 0xC2ED, size: 0x8, addend: 0x0, symName: __ZNKSt3__112basic_stringIcNS_11char_traitsIcEENS_9allocatorIcEEE13__get_pointerB7v160006Ev, symObjAddr: 0x1B3C, symBinAddr: 0x100004B0C, symSize: 0x54 }
  - { offsetInCU: 0xC313, offset: 0xC313, size: 0x8, addend: 0x0, symName: __ZNKSt3__112basic_stringIcNS_11char_traitsIcEENS_9allocatorIcEEE9__is_longB7v160006Ev, symObjAddr: 0x1B90, symBinAddr: 0x100004B60, symSize: 0x38 }
  - { offsetInCU: 0xC339, offset: 0xC339, size: 0x8, addend: 0x0, symName: __ZNKSt3__112basic_stringIcNS_11char_traitsIcEENS_9allocatorIcEEE18__get_long_pointerB7v160006Ev, symObjAddr: 0x1BC8, symBinAddr: 0x100004B98, symSize: 0x28 }
  - { offsetInCU: 0xC35F, offset: 0xC35F, size: 0x8, addend: 0x0, symName: __ZNKSt3__112basic_stringIcNS_11char_traitsIcEENS_9allocatorIcEEE19__get_short_pointerB7v160006Ev, symObjAddr: 0x1BF0, symBinAddr: 0x100004BC0, symSize: 0x28 }
  - { offsetInCU: 0xC385, offset: 0xC385, size: 0x8, addend: 0x0, symName: __ZNKSt3__117__compressed_pairINS_12basic_stringIcNS_11char_traitsIcEENS_9allocatorIcEEE5__repES5_E5firstB7v160006Ev, symObjAddr: 0x1C18, symBinAddr: 0x100004BE8, symSize: 0x24 }
  - { offsetInCU: 0xC3AB, offset: 0xC3AB, size: 0x8, addend: 0x0, symName: __ZNKSt3__122__compressed_pair_elemINS_12basic_stringIcNS_11char_traitsIcEENS_9allocatorIcEEE5__repELi0ELb0EE5__getB7v160006Ev, symObjAddr: 0x1C3C, symBinAddr: 0x100004C0C, symSize: 0x14 }
  - { offsetInCU: 0xC3D1, offset: 0xC3D1, size: 0x8, addend: 0x0, symName: __ZNSt3__114pointer_traitsIPKcE10pointer_toB7v160006ERS1_, symObjAddr: 0x1C50, symBinAddr: 0x100004C20, symSize: 0x14 }
  - { offsetInCU: 0xC3F4, offset: 0xC3F4, size: 0x8, addend: 0x0, symName: __ZNSt3__119ostreambuf_iteratorIcNS_11char_traitsIcEEEC2B7v160006ERNS_13basic_ostreamIcS2_EE, symObjAddr: 0x1C64, symBinAddr: 0x100004C34, symSize: 0x54 }
  - { offsetInCU: 0xC42C, offset: 0xC42C, size: 0x8, addend: 0x0, symName: __ZNKSt3__19basic_iosIcNS_11char_traitsIcEEE5rdbufB7v160006Ev, symObjAddr: 0x1CB8, symBinAddr: 0x100004C88, symSize: 0x24 }
  - { offsetInCU: 0xC454, offset: 0xC454, size: 0x8, addend: 0x0, symName: __ZNKSt3__18ios_base5rdbufB7v160006Ev, symObjAddr: 0x1CDC, symBinAddr: 0x100004CAC, symSize: 0x18 }
  - { offsetInCU: 0xC47A, offset: 0xC47A, size: 0x8, addend: 0x0, symName: __ZNSt3__111char_traitsIcE11eq_int_typeEii, symObjAddr: 0x1CF4, symBinAddr: 0x100004CC4, symSize: 0x28 }
  - { offsetInCU: 0xC4AB, offset: 0xC4AB, size: 0x8, addend: 0x0, symName: __ZNSt3__111char_traitsIcE3eofEv, symObjAddr: 0x1D1C, symBinAddr: 0x100004CEC, symSize: 0x8 }
  - { offsetInCU: 0xC4BF, offset: 0xC4BF, size: 0x8, addend: 0x0, symName: __ZNKSt3__19basic_iosIcNS_11char_traitsIcEEE5widenB7v160006Ec, symObjAddr: 0x1D24, symBinAddr: 0x100004CF4, symSize: 0x84 }
  - { offsetInCU: 0xC52D, offset: 0xC52D, size: 0x8, addend: 0x0, symName: __ZNKSt3__15ctypeIcE5widenB7v160006Ec, symObjAddr: 0x1DD4, symBinAddr: 0x100004DA4, symSize: 0x38 }
  - { offsetInCU: 0xC562, offset: 0xC562, size: 0x8, addend: 0x0, symName: __ZNSt3__18ios_base8setstateB7v160006Ej, symObjAddr: 0x1E0C, symBinAddr: 0x100004DDC, symSize: 0x34 }
  - { offsetInCU: 0xC599, offset: 0xC599, size: 0x8, addend: 0x0, symName: __ZNSt3__15dequeINS_4pairIiiEENS_9allocatorIS2_EEE8pop_backEv, symObjAddr: 0x1E64, symBinAddr: 0x100004E34, symSize: 0xB8 }
  - { offsetInCU: 0xC5DF, offset: 0xC5DF, size: 0x8, addend: 0x0, symName: __ZNSt3__15dequeINS_4pairIiiEENS_9allocatorIS2_EEE25__maybe_remove_back_spareB7v160006Eb, symObjAddr: 0x1F30, symBinAddr: 0x100004F00, symSize: 0xCC }
  - { offsetInCU: 0xC614, offset: 0xC614, size: 0x8, addend: 0x0, symName: __ZNKSt3__15dequeINS_4pairIiiEENS_9allocatorIS2_EEE19__back_spare_blocksB7v160006Ev, symObjAddr: 0x1FFC, symBinAddr: 0x100004FCC, symSize: 0x2C }
  - { offsetInCU: 0xC63A, offset: 0xC63A, size: 0x8, addend: 0x0, symName: __ZNSt3__114__split_bufferIPNS_4pairIiiEENS_9allocatorIS3_EEE4backB7v160006Ev, symObjAddr: 0x2028, symBinAddr: 0x100004FF8, symSize: 0x1C }
  - { offsetInCU: 0xC660, offset: 0xC660, size: 0x8, addend: 0x0, symName: __ZNSt3__114__split_bufferIPNS_4pairIiiEENS_9allocatorIS3_EEE8pop_backB7v160006Ev, symObjAddr: 0x2044, symBinAddr: 0x100005014, symSize: 0x2C }
  - { offsetInCU: 0xC686, offset: 0xC686, size: 0x8, addend: 0x0, symName: __ZNKSt3__15dequeINS_4pairIiiEENS_9allocatorIS2_EEE12__back_spareB7v160006Ev, symObjAddr: 0x2070, symBinAddr: 0x100005040, symSize: 0x54 }
  - { offsetInCU: 0xC6AC, offset: 0xC6AC, size: 0x8, addend: 0x0, symName: __ZNKSt3__15dequeINS_4pairIiiEENS_9allocatorIS2_EEE10__capacityB7v160006Ev, symObjAddr: 0x20C4, symBinAddr: 0x100005094, symSize: 0x60 }
  - { offsetInCU: 0xC6D2, offset: 0xC6D2, size: 0x8, addend: 0x0, symName: __ZNSt3__15dequeINS_4pairIiiEENS_9allocatorIS2_EEE9push_backEOS2_, symObjAddr: 0x2124, symBinAddr: 0x1000050F4, symSize: 0xA0 }
  - { offsetInCU: 0xC718, offset: 0xC718, size: 0x8, addend: 0x0, symName: __ZNSt3__15dequeINS_4pairIiiEENS_9allocatorIS2_EEE19__add_back_capacityEv, symObjAddr: 0x21C4, symBinAddr: 0x100005194, symSize: 0x314 }
  - { offsetInCU: 0xC7D0, offset: 0xC7D0, size: 0x8, addend: 0x0, symName: __ZNSt3__116allocator_traitsINS_9allocatorINS_4pairIiiEEEEE9constructB7v160006IS3_JS3_EvEEvRS4_PT_DpOT0_, symObjAddr: 0x24D8, symBinAddr: 0x1000054A8, symSize: 0x34 }
  - { offsetInCU: 0xC827, offset: 0xC827, size: 0x8, addend: 0x0, symName: __ZNKSt3__15dequeINS_4pairIiiEENS_9allocatorIS2_EEE13__front_spareB7v160006Ev, symObjAddr: 0x250C, symBinAddr: 0x1000054DC, symSize: 0x18 }
  - { offsetInCU: 0xC84D, offset: 0xC84D, size: 0x8, addend: 0x0, symName: __ZNSt3__114__split_bufferIPNS_4pairIiiEENS_9allocatorIS3_EEE9push_backB7v160006ERKS3_, symObjAddr: 0x2524, symBinAddr: 0x1000054F4, symSize: 0x260 }
  - { offsetInCU: 0xC8C6, offset: 0xC8C6, size: 0x8, addend: 0x0, symName: __ZNKSt3__114__split_bufferIPNS_4pairIiiEENS_9allocatorIS3_EEE12__back_spareB7v160006Ev, symObjAddr: 0x2784, symBinAddr: 0x100005754, symSize: 0x40 }
  - { offsetInCU: 0xC8EC, offset: 0xC8EC, size: 0x8, addend: 0x0, symName: __ZNSt3__114__split_bufferIPNS_4pairIiiEENS_9allocatorIS3_EEE9push_backEOS3_, symObjAddr: 0x27C4, symBinAddr: 0x100005794, symSize: 0x260 }
  - { offsetInCU: 0xC965, offset: 0xC965, size: 0x8, addend: 0x0, symName: __ZNSt3__116allocator_traitsINS_9allocatorINS_4pairIiiEEEEE8allocateB7v160006ERS4_m, symObjAddr: 0x2A24, symBinAddr: 0x1000059F4, symSize: 0x2C }
  - { offsetInCU: 0xC998, offset: 0xC998, size: 0x8, addend: 0x0, symName: __ZNSt3__114__split_bufferIPNS_4pairIiiEENS_9allocatorIS3_EEE10push_frontEOS3_, symObjAddr: 0x2A50, symBinAddr: 0x100005A20, symSize: 0x25C }
  - { offsetInCU: 0xCA11, offset: 0xCA11, size: 0x8, addend: 0x0, symName: __ZNSt3__114__split_bufferIPNS_4pairIiiEERNS_9allocatorIS3_EEEC1EmmS6_, symObjAddr: 0x2CD8, symBinAddr: 0x100005CA8, symSize: 0x44 }
  - { offsetInCU: 0xCA6C, offset: 0xCA6C, size: 0x8, addend: 0x0, symName: __ZNSt3__122__allocator_destructorINS_9allocatorINS_4pairIiiEEEEEC1B7v160006ERS4_m, symObjAddr: 0x2D1C, symBinAddr: 0x100005CEC, symSize: 0x3C }
  - { offsetInCU: 0xCB2F, offset: 0xCB2F, size: 0x8, addend: 0x0, symName: __ZNSt3__110unique_ptrIPNS_4pairIiiEENS_22__allocator_destructorINS_9allocatorIS2_EEEEEC1B7v160006ILb1EvEES3_NS_16__dependent_typeINS_27__unique_ptr_deleter_sfinaeIS7_EEXT_EE20__good_rval_ref_typeE, symObjAddr: 0x2D58, symBinAddr: 0x100005D28, symSize: 0x3C }
  - { offsetInCU: 0xCB80, offset: 0xCB80, size: 0x8, addend: 0x0, symName: __ZNSt3__114__split_bufferIPNS_4pairIiiEERNS_9allocatorIS3_EEE9push_backEOS3_, symObjAddr: 0x2D94, symBinAddr: 0x100005D64, symSize: 0x260 }
  - { offsetInCU: 0xCBF9, offset: 0xCBF9, size: 0x8, addend: 0x0, symName: __ZNKSt3__110unique_ptrIPNS_4pairIiiEENS_22__allocator_destructorINS_9allocatorIS2_EEEEE3getB7v160006Ev, symObjAddr: 0x2FF4, symBinAddr: 0x100005FC4, symSize: 0x28 }
  - { offsetInCU: 0xCC1F, offset: 0xCC1F, size: 0x8, addend: 0x0, symName: __ZNSt3__110unique_ptrIPNS_4pairIiiEENS_22__allocator_destructorINS_9allocatorIS2_EEEEE7releaseB7v160006Ev, symObjAddr: 0x301C, symBinAddr: 0x100005FEC, symSize: 0x44 }
  - { offsetInCU: 0xCC54, offset: 0xCC54, size: 0x8, addend: 0x0, symName: __ZNSt3__114__split_bufferIPNS_4pairIiiEERNS_9allocatorIS3_EEE10push_frontERKS3_, symObjAddr: 0x3060, symBinAddr: 0x100006030, symSize: 0x25C }
  - { offsetInCU: 0xCCCD, offset: 0xCCCD, size: 0x8, addend: 0x0, symName: __ZNSt3__114__split_bufferIPNS_4pairIiiEENS_9allocatorIS3_EEE9__end_capB7v160006Ev, symObjAddr: 0x32F8, symBinAddr: 0x1000062C8, symSize: 0x28 }
  - { offsetInCU: 0xCCF3, offset: 0xCCF3, size: 0x8, addend: 0x0, symName: __ZNSt3__114__split_bufferIPNS_4pairIiiEERNS_9allocatorIS3_EEE9__end_capB7v160006Ev, symObjAddr: 0x3320, symBinAddr: 0x1000062F0, symSize: 0x28 }
  - { offsetInCU: 0xCD19, offset: 0xCD19, size: 0x8, addend: 0x0, symName: __ZNSt3__110unique_ptrIPNS_4pairIiiEENS_22__allocator_destructorINS_9allocatorIS2_EEEEED1B7v160006Ev, symObjAddr: 0x3348, symBinAddr: 0x100006318, symSize: 0x2C }
  - { offsetInCU: 0xCD43, offset: 0xCD43, size: 0x8, addend: 0x0, symName: __ZNSt3__114__split_bufferIPNS_4pairIiiEERNS_9allocatorIS3_EEED1Ev, symObjAddr: 0x3374, symBinAddr: 0x100006344, symSize: 0x2C }
  - { offsetInCU: 0xCD6F, offset: 0xCD6F, size: 0x8, addend: 0x0, symName: __ZNSt3__114__split_bufferIPNS_4pairIiiEERNS_9allocatorIS3_EEE18__construct_at_endINS_13move_iteratorIPS3_EEEENS_9enable_ifIXsr27__is_cpp17_forward_iteratorIT_EE5valueEvE4typeESD_SD_, symObjAddr: 0x33E0, symBinAddr: 0x1000063B0, symSize: 0xFC }
  - { offsetInCU: 0xCDCB, offset: 0xCDCB, size: 0x8, addend: 0x0, symName: __ZNSt3__113move_iteratorIPPNS_4pairIiiEEEC1B7v160006ES4_, symObjAddr: 0x34DC, symBinAddr: 0x1000064AC, symSize: 0x34 }
  - { offsetInCU: 0xCE03, offset: 0xCE03, size: 0x8, addend: 0x0, symName: __ZNSt3__116allocator_traitsINS_9allocatorIPNS_4pairIiiEEEEE9constructB7v160006IS4_JRKS4_EvEEvRS5_PT_DpOT0_, symObjAddr: 0x3510, symBinAddr: 0x1000064E0, symSize: 0x34 }
  - { offsetInCU: 0xCE7D, offset: 0xCE7D, size: 0x8, addend: 0x0, symName: __ZNKSt3__114__move_trivialclB7v160006IPNS_4pairIiiEES4_Li0EEENS2_IPT_PT0_EES6_S6_S8_, symObjAddr: 0x36E0, symBinAddr: 0x1000066B0, symSize: 0x48 }
  - { offsetInCU: 0xCEEA, offset: 0xCEEA, size: 0x8, addend: 0x0, symName: __ZNSt3__14pairIPPNS0_IiiEES3_EC1B7v160006IRS3_S3_LPv0EEEOT_OT0_, symObjAddr: 0x38A8, symBinAddr: 0x100006878, symSize: 0x3C }
  - { offsetInCU: 0xCF48, offset: 0xCF48, size: 0x8, addend: 0x0, symName: __ZNSt3__14pairIPPNS0_IiiEES3_EC2B7v160006IRS3_S3_LPv0EEEOT_OT0_, symObjAddr: 0x38E4, symBinAddr: 0x1000068B4, symSize: 0x34 }
  - { offsetInCU: 0xCFA6, offset: 0xCFA6, size: 0x8, addend: 0x0, symName: __ZNSt3__118__unwrap_iter_implIPPNS_4pairIiiEELb1EE8__unwrapB7v160006ES4_, symObjAddr: 0x3918, symBinAddr: 0x1000068E8, symSize: 0x24 }
  - { offsetInCU: 0xCFC9, offset: 0xCFC9, size: 0x8, addend: 0x0, symName: __ZNSt3__14pairIPPNS0_IiiEES3_EC1B7v160006IS3_S3_LPv0EEEOT_OT0_, symObjAddr: 0x393C, symBinAddr: 0x10000690C, symSize: 0x3C }
  - { offsetInCU: 0xD027, offset: 0xD027, size: 0x8, addend: 0x0, symName: __ZNSt3__14pairIPPNS0_IiiEES3_EC2B7v160006IS3_S3_LPv0EEEOT_OT0_, symObjAddr: 0x3978, symBinAddr: 0x100006948, symSize: 0x34 }
  - { offsetInCU: 0xD085, offset: 0xD085, size: 0x8, addend: 0x0, symName: __ZNSt3__118__unwrap_iter_implIPPNS_4pairIiiEELb1EE8__rewrapB7v160006ES4_S4_, symObjAddr: 0x39AC, symBinAddr: 0x10000697C, symSize: 0x50 }
  - { offsetInCU: 0xD0C0, offset: 0xD0C0, size: 0x8, addend: 0x0, symName: __ZNSt3__114__split_bufferIPNS_4pairIiiEERNS_9allocatorIS3_EEE21_ConstructTransactionC1B7v160006EPPS3_m, symObjAddr: 0x3A38, symBinAddr: 0x100006A08, symSize: 0x3C }
  - { offsetInCU: 0xD106, offset: 0xD106, size: 0x8, addend: 0x0, symName: __ZNSt3__116allocator_traitsINS_9allocatorIPNS_4pairIiiEEEEE9constructB7v160006IS4_JS4_EvEEvRS5_PT_DpOT0_, symObjAddr: 0x3A74, symBinAddr: 0x100006A44, symSize: 0x34 }
  - { offsetInCU: 0xD15D, offset: 0xD15D, size: 0x8, addend: 0x0, symName: __ZNSt3__114__split_bufferIPNS_4pairIiiEERNS_9allocatorIS3_EEE7__allocB7v160006Ev, symObjAddr: 0x3AA8, symBinAddr: 0x100006A78, symSize: 0x28 }
  - { offsetInCU: 0xD183, offset: 0xD183, size: 0x8, addend: 0x0, symName: __ZNKSt3__113move_iteratorIPPNS_4pairIiiEEEdeB7v160006Ev, symObjAddr: 0x3AD0, symBinAddr: 0x100006AA0, symSize: 0x18 }
  - { offsetInCU: 0xD1A9, offset: 0xD1A9, size: 0x8, addend: 0x0, symName: __ZNSt3__113move_iteratorIPPNS_4pairIiiEEEppB7v160006Ev, symObjAddr: 0x3AE8, symBinAddr: 0x100006AB8, symSize: 0x20 }
  - { offsetInCU: 0xD1CF, offset: 0xD1CF, size: 0x8, addend: 0x0, symName: __ZNSt3__114__split_bufferIPNS_4pairIiiEERNS_9allocatorIS3_EEE21_ConstructTransactionD1B7v160006Ev, symObjAddr: 0x3B08, symBinAddr: 0x100006AD8, symSize: 0x2C }
  - { offsetInCU: 0xD1F9, offset: 0xD1F9, size: 0x8, addend: 0x0, symName: __ZNKSt3__113move_iteratorIPPNS_4pairIiiEEE4baseB7v160006Ev, symObjAddr: 0x3BAC, symBinAddr: 0x100006B7C, symSize: 0x18 }
  - { offsetInCU: 0xD21F, offset: 0xD21F, size: 0x8, addend: 0x0, symName: __ZNSt3__114__split_bufferIPNS_4pairIiiEERNS_9allocatorIS3_EEE21_ConstructTransactionC2B7v160006EPPS3_m, symObjAddr: 0x3BC4, symBinAddr: 0x100006B94, symSize: 0x44 }
  - { offsetInCU: 0xD265, offset: 0xD265, size: 0x8, addend: 0x0, symName: __ZNSt3__19allocatorIPNS_4pairIiiEEE9constructB7v160006IS3_JS3_EEEvPT_DpOT0_, symObjAddr: 0x3C08, symBinAddr: 0x100006BD8, symSize: 0x28 }
  - { offsetInCU: 0xD2BB, offset: 0xD2BB, size: 0x8, addend: 0x0, symName: __ZNSt3__117__compressed_pairIPPNS_4pairIiiEERNS_9allocatorIS3_EEE6secondB7v160006Ev, symObjAddr: 0x3C30, symBinAddr: 0x100006C00, symSize: 0x28 }
  - { offsetInCU: 0xD2E1, offset: 0xD2E1, size: 0x8, addend: 0x0, symName: __ZNSt3__122__compressed_pair_elemIRNS_9allocatorIPNS_4pairIiiEEEELi1ELb0EE5__getB7v160006Ev, symObjAddr: 0x3C58, symBinAddr: 0x100006C28, symSize: 0x18 }
  - { offsetInCU: 0xD307, offset: 0xD307, size: 0x8, addend: 0x0, symName: __ZNSt3__114__split_bufferIPNS_4pairIiiEERNS_9allocatorIS3_EEE21_ConstructTransactionD2B7v160006Ev, symObjAddr: 0x3C70, symBinAddr: 0x100006C40, symSize: 0x20 }
  - { offsetInCU: 0xD331, offset: 0xD331, size: 0x8, addend: 0x0, symName: __ZNSt3__113move_iteratorIPPNS_4pairIiiEEEC2B7v160006ES4_, symObjAddr: 0x3C90, symBinAddr: 0x100006C60, symSize: 0x20 }
  - { offsetInCU: 0xD369, offset: 0xD369, size: 0x8, addend: 0x0, symName: __ZNSt3__19allocatorIPNS_4pairIiiEEE9constructB7v160006IS3_JRKS3_EEEvPT_DpOT0_, symObjAddr: 0x3CB0, symBinAddr: 0x100006C80, symSize: 0x28 }
  - { offsetInCU: 0xD3BF, offset: 0xD3BF, size: 0x8, addend: 0x0, symName: __ZNSt3__19allocatorINS_4pairIiiEEE8allocateB7v160006Em, symObjAddr: 0x3CD8, symBinAddr: 0x100006CA8, symSize: 0x58 }
  - { offsetInCU: 0xD3FD, offset: 0xD3FD, size: 0x8, addend: 0x0, symName: __ZNSt3__116allocator_traitsINS_9allocatorINS_4pairIiiEEEEE8max_sizeB7v160006IS4_vEEmRKS4_, symObjAddr: 0x3D30, symBinAddr: 0x100006D00, symSize: 0x24 }
  - { offsetInCU: 0xD42B, offset: 0xD42B, size: 0x8, addend: 0x0, symName: __ZNKSt3__19allocatorINS_4pairIiiEEE8max_sizeB7v160006Ev, symObjAddr: 0x3DB0, symBinAddr: 0x100006D80, symSize: 0x14 }
  - { offsetInCU: 0xD45B, offset: 0xD45B, size: 0x8, addend: 0x0, symName: __ZNKSt3__123__move_backward_trivialclB7v160006IPNS_4pairIiiEES4_Li0EEENS2_IPT_PT0_EES6_S6_S8_, symObjAddr: 0x3F64, symBinAddr: 0x100006F34, symSize: 0x48 }
  - { offsetInCU: 0xD4C3, offset: 0xD4C3, size: 0x8, addend: 0x0, symName: __ZNSt3__14pairIPPNS0_IiiEES3_EC1B7v160006IRS3_S6_LPv0EEEOT_OT0_, symObjAddr: 0x4078, symBinAddr: 0x100007048, symSize: 0x3C }
  - { offsetInCU: 0xD521, offset: 0xD521, size: 0x8, addend: 0x0, symName: __ZNSt3__14pairIPPNS0_IiiEES3_EC2B7v160006IRS3_S6_LPv0EEEOT_OT0_, symObjAddr: 0x40B4, symBinAddr: 0x100007084, symSize: 0x34 }
  - { offsetInCU: 0xD589, offset: 0xD589, size: 0x8, addend: 0x0, symName: __ZNKSt3__16__lessImmEclB7v160006ERKmS3_, symObjAddr: 0x413C, symBinAddr: 0x10000710C, symSize: 0x34 }
  - { offsetInCU: 0xD5CB, offset: 0xD5CB, size: 0x8, addend: 0x0, symName: __ZNSt3__114__split_bufferIPNS_4pairIiiEERNS_9allocatorIS3_EEEC2EmmS6_, symObjAddr: 0x4170, symBinAddr: 0x100007140, symSize: 0xD4 }
  - { offsetInCU: 0xD63F, offset: 0xD63F, size: 0x8, addend: 0x0, symName: __ZNSt3__117__compressed_pairIPPNS_4pairIiiEERNS_9allocatorIS3_EEEC1B7v160006IDnS7_EEOT_OT0_, symObjAddr: 0x4244, symBinAddr: 0x100007214, symSize: 0x3C }
  - { offsetInCU: 0xD697, offset: 0xD697, size: 0x8, addend: 0x0, symName: __ZNSt3__117__compressed_pairIPPNS_4pairIiiEERNS_9allocatorIS3_EEEC2B7v160006IDnS7_EEOT_OT0_, symObjAddr: 0x42C0, symBinAddr: 0x100007290, symSize: 0x48 }
  - { offsetInCU: 0xD6EF, offset: 0xD6EF, size: 0x8, addend: 0x0, symName: __ZNSt3__122__compressed_pair_elemIRNS_9allocatorIPNS_4pairIiiEEEELi1ELb0EEC2B7v160006IS6_vEEOT_, symObjAddr: 0x4308, symBinAddr: 0x1000072D8, symSize: 0x20 }
  - { offsetInCU: 0xD731, offset: 0xD731, size: 0x8, addend: 0x0, symName: __ZNSt3__19allocatorIPNS_4pairIiiEEE8allocateB7v160006Em, symObjAddr: 0x4328, symBinAddr: 0x1000072F8, symSize: 0x58 }
  - { offsetInCU: 0xD76F, offset: 0xD76F, size: 0x8, addend: 0x0, symName: __ZNSt3__116allocator_traitsINS_9allocatorIPNS_4pairIiiEEEEE8max_sizeB7v160006IS5_vEEmRKS5_, symObjAddr: 0x4380, symBinAddr: 0x100007350, symSize: 0x24 }
  - { offsetInCU: 0xD79D, offset: 0xD79D, size: 0x8, addend: 0x0, symName: __ZNKSt3__19allocatorIPNS_4pairIiiEEE8max_sizeB7v160006Ev, symObjAddr: 0x43A4, symBinAddr: 0x100007374, symSize: 0x14 }
  - { offsetInCU: 0xD7C3, offset: 0xD7C3, size: 0x8, addend: 0x0, symName: __ZNSt3__122__allocator_destructorINS_9allocatorINS_4pairIiiEEEEEC2B7v160006ERS4_m, symObjAddr: 0x43B8, symBinAddr: 0x100007388, symSize: 0x2C }
  - { offsetInCU: 0xD809, offset: 0xD809, size: 0x8, addend: 0x0, symName: __ZNSt3__110unique_ptrIPNS_4pairIiiEENS_22__allocator_destructorINS_9allocatorIS2_EEEEEC2B7v160006ILb1EvEES3_NS_16__dependent_typeINS_27__unique_ptr_deleter_sfinaeIS7_EEXT_EE20__good_rval_ref_typeE, symObjAddr: 0x43E4, symBinAddr: 0x1000073B4, symSize: 0x48 }
  - { offsetInCU: 0xD85A, offset: 0xD85A, size: 0x8, addend: 0x0, symName: __ZNSt3__117__compressed_pairIPNS_4pairIiiEENS_22__allocator_destructorINS_9allocatorIS2_EEEEEC1B7v160006IRS3_S7_EEOT_OT0_, symObjAddr: 0x442C, symBinAddr: 0x1000073FC, symSize: 0x3C }
  - { offsetInCU: 0xD8B2, offset: 0xD8B2, size: 0x8, addend: 0x0, symName: __ZNSt3__117__compressed_pairIPNS_4pairIiiEENS_22__allocator_destructorINS_9allocatorIS2_EEEEEC2B7v160006IRS3_S7_EEOT_OT0_, symObjAddr: 0x4468, symBinAddr: 0x100007438, symSize: 0x48 }
  - { offsetInCU: 0xD90A, offset: 0xD90A, size: 0x8, addend: 0x0, symName: __ZNSt3__122__compressed_pair_elemIPNS_4pairIiiEELi0ELb0EEC2B7v160006IRS3_vEEOT_, symObjAddr: 0x44B0, symBinAddr: 0x100007480, symSize: 0x24 }
  - { offsetInCU: 0xD94C, offset: 0xD94C, size: 0x8, addend: 0x0, symName: __ZNSt3__122__compressed_pair_elemINS_22__allocator_destructorINS_9allocatorINS_4pairIiiEEEEEELi1ELb0EEC2B7v160006IS6_vEEOT_, symObjAddr: 0x44D4, symBinAddr: 0x1000074A4, symSize: 0x24 }
  - { offsetInCU: 0xD98E, offset: 0xD98E, size: 0x8, addend: 0x0, symName: __ZNKSt3__117__compressed_pairIPNS_4pairIiiEENS_22__allocator_destructorINS_9allocatorIS2_EEEEE5firstB7v160006Ev, symObjAddr: 0x44F8, symBinAddr: 0x1000074C8, symSize: 0x24 }
  - { offsetInCU: 0xD9B4, offset: 0xD9B4, size: 0x8, addend: 0x0, symName: __ZNKSt3__122__compressed_pair_elemIPNS_4pairIiiEELi0ELb0EE5__getB7v160006Ev, symObjAddr: 0x451C, symBinAddr: 0x1000074EC, symSize: 0x14 }
  - { offsetInCU: 0xD9DA, offset: 0xD9DA, size: 0x8, addend: 0x0, symName: __ZNSt3__117__compressed_pairIPNS_4pairIiiEENS_22__allocator_destructorINS_9allocatorIS2_EEEEE5firstB7v160006Ev, symObjAddr: 0x4530, symBinAddr: 0x100007500, symSize: 0x24 }
  - { offsetInCU: 0xDA00, offset: 0xDA00, size: 0x8, addend: 0x0, symName: __ZNSt3__122__compressed_pair_elemIPNS_4pairIiiEELi0ELb0EE5__getB7v160006Ev, symObjAddr: 0x4554, symBinAddr: 0x100007524, symSize: 0x14 }
  - { offsetInCU: 0xDA26, offset: 0xDA26, size: 0x8, addend: 0x0, symName: __ZNSt3__117__compressed_pairIPPNS_4pairIiiEENS_9allocatorIS3_EEE5firstB7v160006Ev, symObjAddr: 0x4568, symBinAddr: 0x100007538, symSize: 0x24 }
  - { offsetInCU: 0xDA4C, offset: 0xDA4C, size: 0x8, addend: 0x0, symName: __ZNSt3__122__compressed_pair_elemIPPNS_4pairIiiEELi0ELb0EE5__getB7v160006Ev, symObjAddr: 0x458C, symBinAddr: 0x10000755C, symSize: 0x14 }
  - { offsetInCU: 0xDA72, offset: 0xDA72, size: 0x8, addend: 0x0, symName: __ZNSt3__117__compressed_pairIPPNS_4pairIiiEERNS_9allocatorIS3_EEE5firstB7v160006Ev, symObjAddr: 0x45A0, symBinAddr: 0x100007570, symSize: 0x24 }
  - { offsetInCU: 0xDA98, offset: 0xDA98, size: 0x8, addend: 0x0, symName: __ZNSt3__110unique_ptrIPNS_4pairIiiEENS_22__allocator_destructorINS_9allocatorIS2_EEEEED2B7v160006Ev, symObjAddr: 0x45C4, symBinAddr: 0x100007594, symSize: 0x30 }
  - { offsetInCU: 0xDAC2, offset: 0xDAC2, size: 0x8, addend: 0x0, symName: __ZNSt3__110unique_ptrIPNS_4pairIiiEENS_22__allocator_destructorINS_9allocatorIS2_EEEEE5resetB7v160006ES3_, symObjAddr: 0x45F4, symBinAddr: 0x1000075C4, symSize: 0x78 }
  - { offsetInCU: 0xDB06, offset: 0xDB06, size: 0x8, addend: 0x0, symName: __ZNSt3__117__compressed_pairIPNS_4pairIiiEENS_22__allocator_destructorINS_9allocatorIS2_EEEEE6secondB7v160006Ev, symObjAddr: 0x466C, symBinAddr: 0x10000763C, symSize: 0x28 }
  - { offsetInCU: 0xDB2C, offset: 0xDB2C, size: 0x8, addend: 0x0, symName: __ZNSt3__122__allocator_destructorINS_9allocatorINS_4pairIiiEEEEEclB7v160006EPS3_, symObjAddr: 0x4694, symBinAddr: 0x100007664, symSize: 0x34 }
  - { offsetInCU: 0xDB60, offset: 0xDB60, size: 0x8, addend: 0x0, symName: __ZNSt3__122__compressed_pair_elemINS_22__allocator_destructorINS_9allocatorINS_4pairIiiEEEEEELi1ELb0EE5__getB7v160006Ev, symObjAddr: 0x46C8, symBinAddr: 0x100007698, symSize: 0x14 }
  - { offsetInCU: 0xDB86, offset: 0xDB86, size: 0x8, addend: 0x0, symName: __ZNSt3__114__split_bufferIPNS_4pairIiiEERNS_9allocatorIS3_EEED2Ev, symObjAddr: 0x46DC, symBinAddr: 0x1000076AC, symSize: 0x8C }
  - { offsetInCU: 0xDBB2, offset: 0xDBB2, size: 0x8, addend: 0x0, symName: __ZNSt3__114__split_bufferIPNS_4pairIiiEERNS_9allocatorIS3_EEE5clearB7v160006Ev, symObjAddr: 0x4768, symBinAddr: 0x100007738, symSize: 0x28 }
  - { offsetInCU: 0xDBD8, offset: 0xDBD8, size: 0x8, addend: 0x0, symName: __ZNKSt3__114__split_bufferIPNS_4pairIiiEERNS_9allocatorIS3_EEE8capacityB7v160006Ev, symObjAddr: 0x4790, symBinAddr: 0x100007760, symSize: 0x40 }
  - { offsetInCU: 0xDBFE, offset: 0xDBFE, size: 0x8, addend: 0x0, symName: __ZNSt3__114__split_bufferIPNS_4pairIiiEERNS_9allocatorIS3_EEE17__destruct_at_endB7v160006EPS3_, symObjAddr: 0x47D0, symBinAddr: 0x1000077A0, symSize: 0x2C }
  - { offsetInCU: 0xDC32, offset: 0xDC32, size: 0x8, addend: 0x0, symName: __ZNSt3__114__split_bufferIPNS_4pairIiiEERNS_9allocatorIS3_EEE17__destruct_at_endB7v160006EPS3_NS_17integral_constantIbLb0EEE, symObjAddr: 0x47FC, symBinAddr: 0x1000077CC, symSize: 0x80 }
  - { offsetInCU: 0xDC72, offset: 0xDC72, size: 0x8, addend: 0x0, symName: __ZNKSt3__114__split_bufferIPNS_4pairIiiEERNS_9allocatorIS3_EEE9__end_capB7v160006Ev, symObjAddr: 0x487C, symBinAddr: 0x10000784C, symSize: 0x28 }
  - { offsetInCU: 0xDC98, offset: 0xDC98, size: 0x8, addend: 0x0, symName: __ZNKSt3__117__compressed_pairIPPNS_4pairIiiEERNS_9allocatorIS3_EEE5firstB7v160006Ev, symObjAddr: 0x48A4, symBinAddr: 0x100007874, symSize: 0x24 }
  - { offsetInCU: 0xDCBE, offset: 0xDCBE, size: 0x8, addend: 0x0, symName: __ZNSt3__19allocatorINS_4pairIiiEEE9constructB7v160006IS2_JS2_EEEvPT_DpOT0_, symObjAddr: 0x48C8, symBinAddr: 0x100007898, symSize: 0x28 }
...
